; ModuleID = '19/1526.c'
source_filename = "19/1526.c"
target datalayout = "e-m:e-p270:32:32-p271:32:32-p272:64:64-i64:64-f80:128-n8:16:32:64-S128"
target triple = "x86_64-pc-linux-gnu"

@.str = private unnamed_addr constant [3 x i8] c"%s\00", align 1
@.str.1 = private unnamed_addr constant [4 x i8] c" %s\00", align 1

; Function Attrs: noinline nounwind uwtable
define dso_local void @main() #0 {
  %1 = alloca [101 x i8], align 16
  %2 = alloca [101 x i8], align 16
  %3 = alloca [101 x i8], align 16
  %4 = alloca [100 x [21 x i8]], align 16
  %5 = alloca i32, align 4
  %6 = alloca i32, align 4
  %7 = alloca i32, align 4
  store i32 0, i32* %5, align 4
  store i32 0, i32* %6, align 4
  store i32 0, i32* %7, align 4
  %8 = getelementptr inbounds [101 x i8], [101 x i8]* %1, i64 0, i64 0
  %9 = call i32 (i8*, ...) bitcast (i32 (...)* @gets to i32 (i8*, ...)*)(i8* %8)
  %10 = getelementptr inbounds [101 x i8], [101 x i8]* %2, i64 0, i64 0
  %11 = call i32 (i8*, ...) bitcast (i32 (...)* @gets to i32 (i8*, ...)*)(i8* %10)
  %12 = getelementptr inbounds [101 x i8], [101 x i8]* %3, i64 0, i64 0
  %13 = call i32 (i8*, ...) bitcast (i32 (...)* @gets to i32 (i8*, ...)*)(i8* %12)
  store i32 0, i32* %5, align 4
  store i32 0, i32* %6, align 4
  br label %14

14:                                               ; preds = %50, %0
  %15 = load i32, i32* %5, align 4
  %16 = sext i32 %15 to i64
  %17 = getelementptr inbounds [101 x i8], [101 x i8]* %1, i64 0, i64 0
  %18 = call i64 @strlen(i8* %17) #3
  %19 = icmp ult i64 %16, %18
  br i1 %19, label %20, label %53

20:                                               ; preds = %14
  %21 = load i32, i32* %5, align 4
  %22 = sext i32 %21 to i64
  %23 = getelementptr inbounds [101 x i8], [101 x i8]* %1, i64 0, i64 %22
  %24 = load i8, i8* %23, align 1
  %25 = sext i8 %24 to i32
  %26 = icmp ne i32 %25, 32
  br i1 %26, label %27, label %40

27:                                               ; preds = %20
  %28 = load i32, i32* %5, align 4
  %29 = sext i32 %28 to i64
  %30 = getelementptr inbounds [101 x i8], [101 x i8]* %1, i64 0, i64 %29
  %31 = load i8, i8* %30, align 1
  %32 = load i32, i32* %6, align 4
  %33 = sext i32 %32 to i64
  %34 = getelementptr inbounds [100 x [21 x i8]], [100 x [21 x i8]]* %4, i64 0, i64 %33
  %35 = load i32, i32* %7, align 4
  %36 = sext i32 %35 to i64
  %37 = getelementptr inbounds [21 x i8], [21 x i8]* %34, i64 0, i64 %36
  store i8 %31, i8* %37, align 1
  %38 = load i32, i32* %7, align 4
  %39 = add nsw i32 %38, 1
  store i32 %39, i32* %7, align 4
  br label %49

40:                                               ; preds = %20
  %41 = load i32, i32* %6, align 4
  %42 = sext i32 %41 to i64
  %43 = getelementptr inbounds [100 x [21 x i8]], [100 x [21 x i8]]* %4, i64 0, i64 %42
  %44 = load i32, i32* %7, align 4
  %45 = sext i32 %44 to i64
  %46 = getelementptr inbounds [21 x i8], [21 x i8]* %43, i64 0, i64 %45
  store i8 0, i8* %46, align 1
  %47 = load i32, i32* %6, align 4
  %48 = add nsw i32 %47, 1
  store i32 %48, i32* %6, align 4
  store i32 0, i32* %7, align 4
  br label %49

49:                                               ; preds = %40, %27
  br label %50

50:                                               ; preds = %49
  %51 = load i32, i32* %5, align 4
  %52 = add nsw i32 %51, 1
  store i32 %52, i32* %5, align 4
  br label %14

53:                                               ; preds = %14
  %54 = load i32, i32* %6, align 4
  %55 = sext i32 %54 to i64
  %56 = getelementptr inbounds [100 x [21 x i8]], [100 x [21 x i8]]* %4, i64 0, i64 %55
  %57 = load i32, i32* %7, align 4
  %58 = sext i32 %57 to i64
  %59 = getelementptr inbounds [21 x i8], [21 x i8]* %56, i64 0, i64 %58
  store i8 0, i8* %59, align 1
  store i32 0, i32* %5, align 4
  br label %60

60:                                               ; preds = %99, %53
  %61 = load i32, i32* %5, align 4
  %62 = load i32, i32* %6, align 4
  %63 = icmp sle i32 %61, %62
  br i1 %63, label %64, label %102

64:                                               ; preds = %60
  %65 = load i32, i32* %5, align 4
  %66 = sext i32 %65 to i64
  %67 = getelementptr inbounds [100 x [21 x i8]], [100 x [21 x i8]]* %4, i64 0, i64 %66
  %68 = getelementptr inbounds [21 x i8], [21 x i8]* %67, i64 0, i64 0
  %69 = getelementptr inbounds [101 x i8], [101 x i8]* %2, i64 0, i64 0
  %70 = call i32 @strcmp(i8* %68, i8* %69) #3
  %71 = icmp eq i32 %70, 0
  br i1 %71, label %72, label %82

72:                                               ; preds = %64
  %73 = load i32, i32* %7, align 4
  %74 = icmp ne i32 %73, 0
  br i1 %74, label %75, label %78

75:                                               ; preds = %72
  %76 = getelementptr inbounds [101 x i8], [101 x i8]* %3, i64 0, i64 0
  %77 = call i32 (i8*, ...) @printf(i8* getelementptr inbounds ([3 x i8], [3 x i8]* @.str, i64 0, i64 0), i8* %76)
  store i32 0, i32* %7, align 4
  br label %81

78:                                               ; preds = %72
  %79 = getelementptr inbounds [101 x i8], [101 x i8]* %3, i64 0, i64 0
  %80 = call i32 (i8*, ...) @printf(i8* getelementptr inbounds ([4 x i8], [4 x i8]* @.str.1, i64 0, i64 0), i8* %79)
  br label %81

81:                                               ; preds = %78, %75
  br label %98

82:                                               ; preds = %64
  %83 = load i32, i32* %7, align 4
  %84 = icmp ne i32 %83, 0
  br i1 %84, label %85, label %91

85:                                               ; preds = %82
  %86 = load i32, i32* %5, align 4
  %87 = sext i32 %86 to i64
  %88 = getelementptr inbounds [100 x [21 x i8]], [100 x [21 x i8]]* %4, i64 0, i64 %87
  %89 = getelementptr inbounds [21 x i8], [21 x i8]* %88, i64 0, i64 0
  %90 = call i32 (i8*, ...) @printf(i8* getelementptr inbounds ([3 x i8], [3 x i8]* @.str, i64 0, i64 0), i8* %89)
  store i32 0, i32* %7, align 4
  br label %97

91:                                               ; preds = %82
  %92 = load i32, i32* %5, align 4
  %93 = sext i32 %92 to i64
  %94 = getelementptr inbounds [100 x [21 x i8]], [100 x [21 x i8]]* %4, i64 0, i64 %93
  %95 = getelementptr inbounds [21 x i8], [21 x i8]* %94, i64 0, i64 0
  %96 = call i32 (i8*, ...) @printf(i8* getelementptr inbounds ([4 x i8], [4 x i8]* @.str.1, i64 0, i64 0), i8* %95)
  br label %97

97:                                               ; preds = %91, %85
  br label %98

98:                                               ; preds = %97, %81
  br label %99

99:                                               ; preds = %98
  %100 = load i32, i32* %5, align 4
  %101 = add nsw i32 %100, 1
  store i32 %101, i32* %5, align 4
  br label %60

102:                                              ; preds = %60
  ret void
}

declare dso_local i32 @gets(...) #1

; Function Attrs: nounwind readonly
declare dso_local i64 @strlen(i8*) #2

; Function Attrs: nounwind readonly
declare dso_local i32 @strcmp(i8*, i8*) #2

declare dso_local i32 @printf(i8*, ...) #1


!llvm.module.flags = !{!0}
!llvm.ident = !{!1}

!0 = !{i32 1, !"wchar_size", i32 4}
!1 = !{!"clang version 10.0.0-4ubuntu1 "}
