; ModuleID = 'source-C-CXX/18/1526.c'
source_filename = "source-C-CXX/18/1526.c"
target datalayout = "e-m:e-p270:32:32-p271:32:32-p272:64:64-i64:64-f80:128-n8:16:32:64-S128"
target triple = "x86_64-pc-linux-gnu"

@.str = private unnamed_addr constant [3 x i8] c"%s\00", align 1
@.str.1 = private unnamed_addr constant [4 x i8] c" %s\00", align 1

; Function Attrs: nounwind sspstrong uwtable
define dso_local void @main() local_unnamed_addr #0 {
  %1 = alloca [101 x i8], align 16
  %2 = alloca [101 x i8], align 16
  %3 = alloca [101 x i8], align 16
  %4 = alloca [100 x [21 x i8]], align 16
  %5 = getelementptr inbounds [101 x i8], [101 x i8]* %1, i64 0, i64 0
  call void @llvm.lifetime.start.p0i8(i64 101, i8* nonnull %5) #5
  %6 = getelementptr inbounds [101 x i8], [101 x i8]* %2, i64 0, i64 0
  call void @llvm.lifetime.start.p0i8(i64 101, i8* nonnull %6) #5
  %7 = getelementptr inbounds [101 x i8], [101 x i8]* %3, i64 0, i64 0
  call void @llvm.lifetime.start.p0i8(i64 101, i8* nonnull %7) #5
  %8 = getelementptr inbounds [100 x [21 x i8]], [100 x [21 x i8]]* %4, i64 0, i64 0, i64 0
  call void @llvm.lifetime.start.p0i8(i64 2100, i8* nonnull %8) #5
  %9 = call i32 (i8*, ...) bitcast (i32 (...)* @gets to i32 (i8*, ...)*)(i8* nonnull %5) #5
  %10 = call i32 (i8*, ...) bitcast (i32 (...)* @gets to i32 (i8*, ...)*)(i8* nonnull %6) #5
  %11 = call i32 (i8*, ...) bitcast (i32 (...)* @gets to i32 (i8*, ...)*)(i8* nonnull %7) #5
  %12 = call i64 @strlen(i8* noundef nonnull %5) #6
  %13 = icmp eq i64 %12, 0
  br i1 %13, label %14, label %16

14:                                               ; preds = %0
  %15 = getelementptr inbounds [100 x [21 x i8]], [100 x [21 x i8]]* %4, i64 0, i64 0, i64 0
  store i8 0, i8* %15, align 16, !tbaa !5
  br label %40

16:                                               ; preds = %0, %30
  %17 = phi i64 [ %33, %30 ], [ 0, %0 ]
  %18 = phi i32 [ %32, %30 ], [ 0, %0 ]
  %19 = phi i32 [ %31, %30 ], [ 0, %0 ]
  %20 = getelementptr inbounds [101 x i8], [101 x i8]* %1, i64 0, i64 %17
  %21 = load i8, i8* %20, align 1, !tbaa !5
  %22 = icmp eq i8 %21, 32
  %23 = sext i32 %19 to i64
  %24 = sext i32 %18 to i64
  %25 = getelementptr inbounds [100 x [21 x i8]], [100 x [21 x i8]]* %4, i64 0, i64 %23, i64 %24
  br i1 %22, label %28, label %26

26:                                               ; preds = %16
  store i8 %21, i8* %25, align 1, !tbaa !5
  %27 = add nsw i32 %18, 1
  br label %30

28:                                               ; preds = %16
  store i8 0, i8* %25, align 1, !tbaa !5
  %29 = add nsw i32 %19, 1
  br label %30

30:                                               ; preds = %26, %28
  %31 = phi i32 [ %19, %26 ], [ %29, %28 ]
  %32 = phi i32 [ %27, %26 ], [ 0, %28 ]
  %33 = add nuw nsw i64 %17, 1
  %34 = icmp eq i64 %33, %12
  br i1 %34, label %35, label %16, !llvm.loop !8

35:                                               ; preds = %30
  %36 = sext i32 %31 to i64
  %37 = sext i32 %32 to i64
  %38 = getelementptr inbounds [100 x [21 x i8]], [100 x [21 x i8]]* %4, i64 0, i64 %36, i64 %37
  store i8 0, i8* %38, align 1, !tbaa !5
  %39 = icmp slt i32 %31, 0
  br i1 %39, label %69, label %40

40:                                               ; preds = %14, %35
  %41 = phi i32 [ 0, %14 ], [ %32, %35 ]
  %42 = phi i32 [ 0, %14 ], [ %31, %35 ]
  %43 = add nuw i32 %42, 1
  %44 = zext i32 %43 to i64
  %45 = call i32 @strcmp(i8* noundef nonnull %8, i8* noundef nonnull %6) #6
  %46 = icmp eq i32 %45, 0
  %47 = icmp eq i32 %41, 0
  br i1 %46, label %53, label %48

48:                                               ; preds = %40
  br i1 %47, label %51, label %49

49:                                               ; preds = %48
  %50 = call i32 (i8*, ...) @printf(i8* nonnull dereferenceable(1) getelementptr inbounds ([3 x i8], [3 x i8]* @.str, i64 0, i64 0), i8* nonnull %8)
  br label %58

51:                                               ; preds = %48
  %52 = call i32 (i8*, ...) @printf(i8* nonnull dereferenceable(1) getelementptr inbounds ([4 x i8], [4 x i8]* @.str.1, i64 0, i64 0), i8* nonnull %8)
  br label %58

53:                                               ; preds = %40
  br i1 %47, label %56, label %54

54:                                               ; preds = %53
  %55 = call i32 (i8*, ...) @printf(i8* nonnull dereferenceable(1) getelementptr inbounds ([3 x i8], [3 x i8]* @.str, i64 0, i64 0), i8* nonnull %7)
  br label %58

56:                                               ; preds = %53
  %57 = call i32 (i8*, ...) @printf(i8* nonnull dereferenceable(1) getelementptr inbounds ([4 x i8], [4 x i8]* @.str.1, i64 0, i64 0), i8* nonnull %7)
  br label %58

58:                                               ; preds = %56, %54, %51, %49
  %59 = icmp eq i32 %42, 0
  br i1 %59, label %69, label %60

60:                                               ; preds = %58, %60
  %61 = phi i64 [ %67, %60 ], [ 1, %58 ]
  %62 = getelementptr inbounds [100 x [21 x i8]], [100 x [21 x i8]]* %4, i64 0, i64 %61, i64 0
  %63 = call i32 @strcmp(i8* noundef nonnull %62, i8* noundef nonnull %6) #6
  %64 = icmp eq i32 %63, 0
  %65 = select i1 %64, i8* %7, i8* %62
  %66 = call i32 (i8*, ...) @printf(i8* nonnull dereferenceable(1) getelementptr inbounds ([4 x i8], [4 x i8]* @.str.1, i64 0, i64 0), i8* nonnull %65)
  %67 = add nuw nsw i64 %61, 1
  %68 = icmp eq i64 %67, %44
  br i1 %68, label %69, label %60, !llvm.loop !10

69:                                               ; preds = %60, %58, %35
  call void @llvm.lifetime.end.p0i8(i64 2100, i8* nonnull %8) #5
  call void @llvm.lifetime.end.p0i8(i64 101, i8* nonnull %7) #5
  call void @llvm.lifetime.end.p0i8(i64 101, i8* nonnull %6) #5
  call void @llvm.lifetime.end.p0i8(i64 101, i8* nonnull %5) #5
  ret void
}

; Function Attrs: argmemonly mustprogress nofree nosync nounwind willreturn
declare void @llvm.lifetime.start.p0i8(i64 immarg, i8* nocapture) #1

declare i32 @gets(...) local_unnamed_addr #2

; Function Attrs: argmemonly mustprogress nofree nounwind readonly willreturn
declare i64 @strlen(i8* nocapture) local_unnamed_addr #3

; Function Attrs: argmemonly mustprogress nofree nounwind readonly willreturn
declare i32 @strcmp(i8* nocapture, i8* nocapture) local_unnamed_addr #3

; Function Attrs: nofree nounwind
declare noundef i32 @printf(i8* nocapture noundef readonly, ...) local_unnamed_addr #4

; Function Attrs: argmemonly mustprogress nofree nosync nounwind willreturn
declare void @llvm.lifetime.end.p0i8(i64 immarg, i8* nocapture) #1


!llvm.module.flags = !{!0, !1, !2, !3}
!llvm.ident = !{!4}

!0 = !{i32 1, !"wchar_size", i32 4}
!1 = !{i32 7, !"PIC Level", i32 2}
!2 = !{i32 7, !"PIE Level", i32 2}
!3 = !{i32 7, !"uwtable", i32 1}
!4 = !{!"clang version 13.0.0"}
!5 = !{!6, !6, i64 0}
!6 = !{!"omnipotent char", !7, i64 0}
!7 = !{!"Simple C/C++ TBAA"}
!8 = distinct !{!8, !9}
!9 = !{!"llvm.loop.mustprogress"}
!10 = distinct !{!10, !9, !11}
!11 = !{!"llvm.loop.peeled.count", i32 1}
